; ModuleID = '2/509.c'
source_filename = "2/509.c"
target datalayout = "e-m:e-p270:32:32-p271:32:32-p272:64:64-i64:64-f80:128-n8:16:32:64-S128"
target triple = "x86_64-pc-linux-gnu"

%struct.book = type { i32, [100 x i8], i32 }

@.str = private unnamed_addr constant [3 x i8] c"%d\00", align 1
@.str.1 = private unnamed_addr constant [5 x i8] c"%d%s\00", align 1
@b = common dso_local global [100 x %struct.book] zeroinitializer, align 16
@.str.2 = private unnamed_addr constant [4 x i8] c"%c\0A\00", align 1
@.str.3 = private unnamed_addr constant [4 x i8] c"%d\0A\00", align 1

; Function Attrs: noinline nounwind uwtable
define dso_local void @fun(i32* %0, i8* %1, i32 %2) #0 {
  %4 = alloca i32*, align 8
  %5 = alloca i8*, align 8
  %6 = alloca i32, align 4
  %7 = alloca i32, align 4
  %8 = alloca i32, align 4
  store i32* %0, i32** %4, align 8
  store i8* %1, i8** %5, align 8
  store i32 %2, i32* %6, align 4
  store i32 0, i32* %7, align 4
  br label %9

9:                                                ; preds = %27, %3
  %10 = load i32, i32* %7, align 4
  %11 = load i32, i32* %6, align 4
  %12 = icmp slt i32 %10, %11
  br i1 %12, label %13, label %30

13:                                               ; preds = %9
  %14 = load i8*, i8** %5, align 8
  %15 = load i32, i32* %7, align 4
  %16 = sext i32 %15 to i64
  %17 = getelementptr inbounds i8, i8* %14, i64 %16
  %18 = load i8, i8* %17, align 1
  %19 = sext i8 %18 to i32
  %20 = sub nsw i32 %19, 65
  store i32 %20, i32* %8, align 4
  %21 = load i32*, i32** %4, align 8
  %22 = load i32, i32* %8, align 4
  %23 = sext i32 %22 to i64
  %24 = getelementptr inbounds i32, i32* %21, i64 %23
  %25 = load i32, i32* %24, align 4
  %26 = add nsw i32 %25, 1
  store i32 %26, i32* %24, align 4
  br label %27

27:                                               ; preds = %13
  %28 = load i32, i32* %7, align 4
  %29 = add nsw i32 %28, 1
  store i32 %29, i32* %7, align 4
  br label %9

30:                                               ; preds = %9
  ret void
}

; Function Attrs: noinline nounwind uwtable
define dso_local i32 @judge(i8* %0, i32 %1, i8 signext %2) #0 {
  %4 = alloca i8*, align 8
  %5 = alloca i32, align 4
  %6 = alloca i8, align 1
  %7 = alloca i32, align 4
  %8 = alloca i32, align 4
  store i8* %0, i8** %4, align 8
  store i32 %1, i32* %5, align 4
  store i8 %2, i8* %6, align 1
  store i32 0, i32* %8, align 4
  store i32 0, i32* %7, align 4
  br label %9

9:                                                ; preds = %25, %3
  %10 = load i32, i32* %7, align 4
  %11 = load i32, i32* %5, align 4
  %12 = icmp slt i32 %10, %11
  br i1 %12, label %13, label %28

13:                                               ; preds = %9
  %14 = load i8*, i8** %4, align 8
  %15 = load i32, i32* %7, align 4
  %16 = sext i32 %15 to i64
  %17 = getelementptr inbounds i8, i8* %14, i64 %16
  %18 = load i8, i8* %17, align 1
  %19 = sext i8 %18 to i32
  %20 = load i8, i8* %6, align 1
  %21 = sext i8 %20 to i32
  %22 = icmp eq i32 %19, %21
  br i1 %22, label %23, label %24

23:                                               ; preds = %13
  store i32 1, i32* %8, align 4
  br label %28

24:                                               ; preds = %13
  br label %25

25:                                               ; preds = %24
  %26 = load i32, i32* %7, align 4
  %27 = add nsw i32 %26, 1
  store i32 %27, i32* %7, align 4
  br label %9

28:                                               ; preds = %23, %9
  %29 = load i32, i32* %8, align 4
  ret i32 %29
}

; Function Attrs: noinline nounwind uwtable
define dso_local i32 @main() #0 {
  %1 = alloca i32, align 4
  %2 = alloca i32, align 4
  %3 = alloca i32, align 4
  %4 = alloca [100 x i32], align 16
  %5 = alloca i32, align 4
  %6 = alloca i32, align 4
  %7 = alloca i32, align 4
  %8 = alloca i32, align 4
  %9 = alloca i8, align 1
  %10 = alloca i32, align 4
  store i32 0, i32* %1, align 4
  %11 = bitcast [100 x i32]* %4 to i8*
  call void @llvm.memset.p0i8.i64(i8* align 16 %11, i8 0, i64 400, i1 false)
  %12 = call i32 (i8*, ...) @__isoc99_scanf(i8* getelementptr inbounds ([3 x i8], [3 x i8]* @.str, i64 0, i64 0), i32* %2)
  store i32 0, i32* %3, align 4
  br label %13

13:                                               ; preds = %50, %0
  %14 = load i32, i32* %3, align 4
  %15 = load i32, i32* %2, align 4
  %16 = icmp slt i32 %14, %15
  br i1 %16, label %17, label %53

17:                                               ; preds = %13
  %18 = load i32, i32* %3, align 4
  %19 = sext i32 %18 to i64
  %20 = getelementptr inbounds [100 x %struct.book], [100 x %struct.book]* @b, i64 0, i64 %19
  %21 = getelementptr inbounds %struct.book, %struct.book* %20, i32 0, i32 0
  %22 = load i32, i32* %3, align 4
  %23 = sext i32 %22 to i64
  %24 = getelementptr inbounds [100 x %struct.book], [100 x %struct.book]* @b, i64 0, i64 %23
  %25 = getelementptr inbounds %struct.book, %struct.book* %24, i32 0, i32 1
  %26 = getelementptr inbounds [100 x i8], [100 x i8]* %25, i64 0, i64 0
  %27 = call i32 (i8*, ...) @__isoc99_scanf(i8* getelementptr inbounds ([5 x i8], [5 x i8]* @.str.1, i64 0, i64 0), i32* %21, i8* %26)
  %28 = load i32, i32* %3, align 4
  %29 = sext i32 %28 to i64
  %30 = getelementptr inbounds [100 x %struct.book], [100 x %struct.book]* @b, i64 0, i64 %29
  %31 = getelementptr inbounds %struct.book, %struct.book* %30, i32 0, i32 1
  %32 = getelementptr inbounds [100 x i8], [100 x i8]* %31, i64 0, i64 0
  %33 = call i64 @strlen(i8* %32) #4
  %34 = trunc i64 %33 to i32
  %35 = load i32, i32* %3, align 4
  %36 = sext i32 %35 to i64
  %37 = getelementptr inbounds [100 x %struct.book], [100 x %struct.book]* @b, i64 0, i64 %36
  %38 = getelementptr inbounds %struct.book, %struct.book* %37, i32 0, i32 2
  store i32 %34, i32* %38, align 4
  %39 = getelementptr inbounds [100 x i32], [100 x i32]* %4, i64 0, i64 0
  %40 = load i32, i32* %3, align 4
  %41 = sext i32 %40 to i64
  %42 = getelementptr inbounds [100 x %struct.book], [100 x %struct.book]* @b, i64 0, i64 %41
  %43 = getelementptr inbounds %struct.book, %struct.book* %42, i32 0, i32 1
  %44 = getelementptr inbounds [100 x i8], [100 x i8]* %43, i64 0, i64 0
  %45 = load i32, i32* %3, align 4
  %46 = sext i32 %45 to i64
  %47 = getelementptr inbounds [100 x %struct.book], [100 x %struct.book]* @b, i64 0, i64 %46
  %48 = getelementptr inbounds %struct.book, %struct.book* %47, i32 0, i32 2
  %49 = load i32, i32* %48, align 4
  call void @fun(i32* %39, i8* %44, i32 %49)
  br label %50

50:                                               ; preds = %17
  %51 = load i32, i32* %3, align 4
  %52 = add nsw i32 %51, 1
  store i32 %52, i32* %3, align 4
  br label %13

53:                                               ; preds = %13
  %54 = getelementptr inbounds [100 x i32], [100 x i32]* %4, i64 0, i64 0
  %55 = load i32, i32* %54, align 16
  store i32 %55, i32* %7, align 4
  store i32 0, i32* %8, align 4
  store i32 1, i32* %6, align 4
  br label %56

56:                                               ; preds = %73, %53
  %57 = load i32, i32* %6, align 4
  %58 = icmp slt i32 %57, 100
  br i1 %58, label %59, label %76

59:                                               ; preds = %56
  %60 = load i32, i32* %6, align 4
  %61 = sext i32 %60 to i64
  %62 = getelementptr inbounds [100 x i32], [100 x i32]* %4, i64 0, i64 %61
  %63 = load i32, i32* %62, align 4
  %64 = load i32, i32* %7, align 4
  %65 = icmp sgt i32 %63, %64
  br i1 %65, label %66, label %72

66:                                               ; preds = %59
  %67 = load i32, i32* %6, align 4
  %68 = sext i32 %67 to i64
  %69 = getelementptr inbounds [100 x i32], [100 x i32]* %4, i64 0, i64 %68
  %70 = load i32, i32* %69, align 4
  store i32 %70, i32* %7, align 4
  %71 = load i32, i32* %6, align 4
  store i32 %71, i32* %8, align 4
  br label %72

72:                                               ; preds = %66, %59
  br label %73

73:                                               ; preds = %72
  %74 = load i32, i32* %6, align 4
  %75 = add nsw i32 %74, 1
  store i32 %75, i32* %6, align 4
  br label %56

76:                                               ; preds = %56
  %77 = load i32, i32* %8, align 4
  %78 = add nsw i32 %77, 65
  %79 = trunc i32 %78 to i8
  store i8 %79, i8* %9, align 1
  %80 = load i8, i8* %9, align 1
  %81 = sext i8 %80 to i32
  %82 = call i32 (i8*, ...) @printf(i8* getelementptr inbounds ([4 x i8], [4 x i8]* @.str.2, i64 0, i64 0), i32 %81)
  %83 = load i32, i32* %7, align 4
  %84 = call i32 (i8*, ...) @printf(i8* getelementptr inbounds ([4 x i8], [4 x i8]* @.str.3, i64 0, i64 0), i32 %83)
  store i32 0, i32* %3, align 4
  br label %85

85:                                               ; preds = %112, %76
  %86 = load i32, i32* %3, align 4
  %87 = load i32, i32* %2, align 4
  %88 = icmp slt i32 %86, %87
  br i1 %88, label %89, label %115

89:                                               ; preds = %85
  store i32 0, i32* %10, align 4
  %90 = load i32, i32* %3, align 4
  %91 = sext i32 %90 to i64
  %92 = getelementptr inbounds [100 x %struct.book], [100 x %struct.book]* @b, i64 0, i64 %91
  %93 = getelementptr inbounds %struct.book, %struct.book* %92, i32 0, i32 1
  %94 = getelementptr inbounds [100 x i8], [100 x i8]* %93, i64 0, i64 0
  %95 = load i32, i32* %3, align 4
  %96 = sext i32 %95 to i64
  %97 = getelementptr inbounds [100 x %struct.book], [100 x %struct.book]* @b, i64 0, i64 %96
  %98 = getelementptr inbounds %struct.book, %struct.book* %97, i32 0, i32 2
  %99 = load i32, i32* %98, align 4
  %100 = load i8, i8* %9, align 1
  %101 = call i32 @judge(i8* %94, i32 %99, i8 signext %100)
  store i32 %101, i32* %10, align 4
  %102 = load i32, i32* %10, align 4
  %103 = icmp eq i32 %102, 1
  br i1 %103, label %104, label %111

104:                                              ; preds = %89
  %105 = load i32, i32* %3, align 4
  %106 = sext i32 %105 to i64
  %107 = getelementptr inbounds [100 x %struct.book], [100 x %struct.book]* @b, i64 0, i64 %106
  %108 = getelementptr inbounds %struct.book, %struct.book* %107, i32 0, i32 0
  %109 = load i32, i32* %108, align 4
  %110 = call i32 (i8*, ...) @printf(i8* getelementptr inbounds ([4 x i8], [4 x i8]* @.str.3, i64 0, i64 0), i32 %109)
  br label %111

111:                                              ; preds = %104, %89
  br label %112

112:                                              ; preds = %111
  %113 = load i32, i32* %3, align 4
  %114 = add nsw i32 %113, 1
  store i32 %114, i32* %3, align 4
  br label %85

115:                                              ; preds = %85
  ret i32 0
}

; Function Attrs: argmemonly nounwind willreturn
declare void @llvm.memset.p0i8.i64(i8* nocapture writeonly, i8, i64, i1 immarg) #1

declare dso_local i32 @__isoc99_scanf(i8*, ...) #2

; Function Attrs: nounwind readonly
declare dso_local i64 @strlen(i8*) #3

declare dso_local i32 @printf(i8*, ...) #2


!llvm.module.flags = !{!0}
!llvm.ident = !{!1}

!0 = !{i32 1, !"wchar_size", i32 4}
!1 = !{!"clang version 10.0.0-4ubuntu1 "}
